target datalayout = "e-m:e-p270:32:32-p271:32:32-p272:64:64-i64:64-i128:128-f80:128-n8:16:32:64-S128"
target triple = "x86_64-pc-linux-gnu"

%"class.std::__cxx11::basic_string" = type { %"struct.std::__cxx11::basic_string<char>::_Alloc_hider", i64, %union.anon }
%"struct.std::__cxx11::basic_string<char>::_Alloc_hider" = type { ptr }
%union.anon = type { i64, [8 x i8] }
%struct.list_type = type { i32, i32, i32, i32, i32 }
%struct.ddTableResults = type { [5 x [4 x i32]] }

@DENOM_ORDER = global [5 x i32] [i32 3, i32 2, i32 1, i32 0, i32 4], align 16

; Function Attrs: mustprogress uwtable
define void @_Z18sacrifices_as_textRK14ddTableResultsiiiiiPA5_K9list_typePA5_KiPA10_cRi(ptr noundef nonnull align 4 dereferenceable(80) %0, i32 noundef %1, i32 noundef %2, i32 noundef %3, i32 noundef %4, i32 noundef %5, ptr noundef %6, ptr noundef %7, ptr noundef %8, ptr noundef nonnull align 4 dereferenceable(4) %9) #2 {
  %11 = alloca ptr, align 8
  %12 = alloca i32, align 4
  %13 = alloca i32, align 4
  %14 = alloca i32, align 4
  %15 = alloca i32, align 4
  %16 = alloca i32, align 4
  %17 = alloca ptr, align 8
  %18 = alloca ptr, align 8
  %19 = alloca ptr, align 8
  %20 = alloca ptr, align 8
  %21 = alloca i32, align 4
  %22 = alloca ptr, align 8
  %23 = alloca i32, align 4
  %24 = alloca i32, align 4
  %25 = alloca i32, align 4
  %26 = alloca %"class.std::__cxx11::basic_string", align 8
  %27 = alloca i32, align 4
  %28 = alloca ptr, align 8
  %29 = alloca i32, align 4
  %30 = alloca i32, align 4
  %31 = alloca [2 x i32], align 4
  %32 = alloca [2 x i32], align 4
  %33 = alloca i32, align 4
  %34 = alloca i32, align 4
  %35 = alloca i32, align 4
  %36 = alloca i32, align 4
  %37 = alloca i32, align 4
  %38 = alloca %"class.std::__cxx11::basic_string", align 8
  %39 = alloca i32, align 4
  %40 = alloca %"class.std::__cxx11::basic_string", align 8
  %41 = alloca i32, align 4
  %42 = alloca %"class.std::__cxx11::basic_string", align 8
  store ptr %0, ptr %11, align 8
  store i32 %1, ptr %12, align 4
  store i32 %2, ptr %13, align 4
  store i32 %3, ptr %14, align 4
  store i32 %4, ptr %15, align 4
  store i32 %5, ptr %16, align 4
  store ptr %6, ptr %17, align 8
  store ptr %7, ptr %18, align 8
  store ptr %8, ptr %19, align 8
  store ptr %9, ptr %20, align 8
  %43 = load i32, ptr %12, align 4
  %44 = sub nsw i32 1, %43
  store i32 %44, ptr %21, align 4
  %45 = load ptr, ptr %17, align 8
  %46 = load i32, ptr %21, align 4
  %47 = sext i32 %46 to i64
  %48 = getelementptr inbounds [5 x %struct.list_type], ptr %45, i64 %47
  %49 = getelementptr inbounds [5 x %struct.list_type], ptr %48, i64 0, i64 0
  store ptr %49, ptr %22, align 8
  store i32 0, ptr %23, align 4
  br label %50

50:                                               ; preds = %232, %10
  %51 = load i32, ptr %23, align 4
  %52 = icmp sle i32 %51, 4
  br i1 %52, label %53, label %235

53:                                               ; preds = %50
  %54 = load ptr, ptr %18, align 8
  %55 = load i32, ptr %16, align 4
  %56 = sext i32 %55 to i64
  %57 = getelementptr inbounds [5 x i32], ptr %54, i64 %56
  %58 = load i32, ptr %23, align 4
  %59 = sext i32 %58 to i64
  %60 = getelementptr inbounds [5 x i32], ptr %57, i64 0, i64 %59
  %61 = load i32, ptr %60, align 4
  store i32 %61, ptr %24, align 4
  %62 = load i32, ptr %24, align 4
  %63 = load i32, ptr %14, align 4
  %64 = icmp ne i32 %62, %63
  br i1 %64, label %65, label %66

65:                                               ; preds = %53
  br label %232

66:                                               ; preds = %53
  %67 = load i32, ptr %23, align 4
  %68 = load i32, ptr %16, align 4
  %69 = icmp ne i32 %67, %68
  br i1 %69, label %70, label %97

70:                                               ; preds = %66
  %71 = load ptr, ptr %22, align 8
  %72 = load i32, ptr %23, align 4
  %73 = sext i32 %72 to i64
  %74 = getelementptr inbounds %struct.list_type, ptr %71, i64 %73
  %75 = getelementptr inbounds nuw %struct.list_type, ptr %74, i32 0, i32 2
  %76 = load i32, ptr %75, align 4
  %77 = load i32, ptr %14, align 4
  %78 = mul nsw i32 5, %77
  %79 = add nsw i32 %76, %78
  store i32 %79, ptr %25, align 4
  %80 = load ptr, ptr %19, align 8
  %81 = load ptr, ptr %20, align 8
  %82 = load i32, ptr %81, align 4
  %83 = sext i32 %82 to i64
  %84 = getelementptr inbounds [10 x i8], ptr %80, i64 %83
  %85 = getelementptr inbounds [10 x i8], ptr %84, i64 0, i64 0
  %86 = load ptr, ptr %11, align 8
  %87 = load i32, ptr %21, align 4
  %88 = load i32, ptr %25, align 4
  %89 = load i32, ptr %23, align 4
  %90 = load i32, ptr %14, align 4
  %91 = sub nsw i32 0, %90
  call void @_Z16contract_as_textB5cxx11RK14ddTableResultsiiii(ptr dead_on_unwind writable sret(%"class.std::__cxx11::basic_string") align 8 %26, ptr noundef nonnull align 4 dereferenceable(80) %86, i32 noundef %87, i32 noundef %88, i32 noundef %89, i32 noundef %91)
  %92 = call noundef ptr @_ZNKSt7__cxx1112basic_stringIcSt11char_traitsIcESaIcEE5c_strEv(ptr noundef nonnull align 8 dereferenceable(32) %26) #4
  %93 = call ptr @strcpy(ptr noundef %85, ptr noundef %92) #4
  call void @_ZNSt7__cxx1112basic_stringIcSt11char_traitsIcESaIcEED1Ev(ptr noundef nonnull align 8 dereferenceable(32) %26) #4
  %94 = load ptr, ptr %20, align 8
  %95 = load i32, ptr %94, align 4
  %96 = add nsw i32 %95, 1
  store i32 %96, ptr %94, align 4
  br label %232

97:                                               ; preds = %66
  %98 = load i32, ptr %15, align 4
  %99 = add nsw i32 %98, 34
  %100 = sdiv i32 %99, 5
  store i32 %100, ptr %27, align 4
  %101 = load ptr, ptr %11, align 8
  %102 = getelementptr inbounds nuw %struct.ddTableResults, ptr %101, i32 0, i32 0
  %103 = load i32, ptr %16, align 4
  %104 = sext i32 %103 to i64
  %105 = getelementptr inbounds [5 x i32], ptr @DENOM_ORDER, i64 0, i64 %104
  %106 = load i32, ptr %105, align 4
  %107 = sext i32 %106 to i64
  %108 = getelementptr inbounds [5 x [4 x i32]], ptr %102, i64 0, i64 %107
  %109 = getelementptr inbounds [4 x i32], ptr %108, i64 0, i64 0
  store ptr %109, ptr %28, align 8
  store i32 0, ptr %29, align 4
  store i32 0, ptr %30, align 4
  %110 = load i32, ptr %13, align 4
  store i32 %110, ptr %33, align 4
  br label %111

111:                                              ; preds = %159, %97
  %112 = load i32, ptr %33, align 4
  %113 = load i32, ptr %13, align 4
  %114 = add nsw i32 %113, 3
  %115 = icmp sle i32 %112, %114
  br i1 %115, label %116, label %162

116:                                              ; preds = %111
  %117 = load i32, ptr %33, align 4
  %118 = srem i32 %117, 4
  store i32 %118, ptr %34, align 4
  %119 = load i32, ptr %27, align 4
  %120 = load ptr, ptr %28, align 8
  %121 = load i32, ptr %34, align 4
  %122 = sext i32 %121 to i64
  %123 = getelementptr inbounds i32, ptr %120, i64 %122
  %124 = load i32, ptr %123, align 4
  %125 = sub nsw i32 %119, %124
  store i32 %125, ptr %35, align 4
  %126 = load i32, ptr %33, align 4
  %127 = srem i32 %126, 2
  store i32 %127, ptr %36, align 4
  %128 = load i32, ptr %36, align 4
  %129 = load i32, ptr %12, align 4
  %130 = icmp eq i32 %128, %129
  br i1 %130, label %131, label %136

131:                                              ; preds = %116
  %132 = load i32, ptr %35, align 4
  %133 = icmp eq i32 %132, 0
  br i1 %133, label %134, label %135

134:                                              ; preds = %131
  store i32 1, ptr %29, align 4
  br label %135

135:                                              ; preds = %134, %131
  br label %158

136:                                              ; preds = %116
  %137 = load i32, ptr %35, align 4
  %138 = load i32, ptr %29, align 4
  %139 = add nsw i32 %137, %138
  store i32 %139, ptr %24, align 4
  %140 = load i32, ptr %24, align 4
  %141 = load i32, ptr %14, align 4
  %142 = icmp ne i32 %140, %141
  br i1 %142, label %143, label %144

143:                                              ; preds = %136
  br label %159

144:                                              ; preds = %136
  %145 = load i32, ptr %34, align 4
  %146 = load i32, ptr %30, align 4
  %147 = sext i32 %146 to i64
  %148 = getelementptr inbounds [2 x i32], ptr %31, i64 0, i64 %147
  store i32 %145, ptr %148, align 4
  %149 = load i32, ptr %15, align 4
  %150 = load i32, ptr %29, align 4
  %151 = mul nsw i32 5, %150
  %152 = add nsw i32 %149, %151
  %153 = load i32, ptr %30, align 4
  %154 = sext i32 %153 to i64
  %155 = getelementptr inbounds [2 x i32], ptr %32, i64 0, i64 %154
  store i32 %152, ptr %155, align 4
  %156 = load i32, ptr %30, align 4
  %157 = add nsw i32 %156, 1
  store i32 %157, ptr %30, align 4
  br label %158

158:                                              ; preds = %144, %135
  br label %159

159:                                              ; preds = %158, %143
  %160 = load i32, ptr %33, align 4
  %161 = add nsw i32 %160, 1
  store i32 %161, ptr %33, align 4
  br label %111, !llvm.loop !16

162:                                              ; preds = %111
  %163 = getelementptr inbounds [2 x i32], ptr %32, i64 0, i64 0
  %164 = load i32, ptr %163, align 4
  store i32 %164, ptr %37, align 4
  %165 = load i32, ptr %30, align 4
  %166 = icmp eq i32 %165, 1
  br i1 %166, label %167, label %183

167:                                              ; preds = %162
  %168 = load ptr, ptr %19, align 8
  %169 = load ptr, ptr %20, align 8
  %170 = load i32, ptr %169, align 4
  %171 = sext i32 %170 to i64
  %172 = getelementptr inbounds [10 x i8], ptr %168, i64 %171
  %173 = getelementptr inbounds [10 x i8], ptr %172, i64 0, i64 0
  %174 = load i32, ptr %37, align 4
  %175 = getelementptr inbounds [2 x i32], ptr %31, i64 0, i64 0
  %176 = load i32, ptr %175, align 4
  %177 = load i32, ptr %14, align 4
  call void @_Z17sacrifice_as_textB5cxx11iii(ptr dead_on_unwind writable sret(%"class.std::__cxx11::basic_string") align 8 %38, i32 noundef %174, i32 noundef %176, i32 noundef %177)
  %178 = call noundef ptr @_ZNKSt7__cxx1112basic_stringIcSt11char_traitsIcESaIcEE5c_strEv(ptr noundef nonnull align 8 dereferenceable(32) %38) #4
  %179 = call ptr @strcpy(ptr noundef %173, ptr noundef %178) #4
  call void @_ZNSt7__cxx1112basic_stringIcSt11char_traitsIcESaIcEED1Ev(ptr noundef nonnull align 8 dereferenceable(32) %38) #4
  %180 = load ptr, ptr %20, align 8
  %181 = load i32, ptr %180, align 4
  %182 = add nsw i32 %181, 1
  store i32 %182, ptr %180, align 4
  br label %232

183:                                              ; preds = %162
  %184 = getelementptr inbounds [2 x i32], ptr %32, i64 0, i64 1
  %185 = load i32, ptr %184, align 4
  store i32 %185, ptr %39, align 4
  %186 = load i32, ptr %37, align 4
  %187 = load i32, ptr %39, align 4
  %188 = icmp eq i32 %186, %187
  br i1 %188, label %189, label %207

189:                                              ; preds = %183
  %190 = load ptr, ptr %19, align 8
  %191 = load ptr, ptr %20, align 8
  %192 = load i32, ptr %191, align 4
  %193 = sext i32 %192 to i64
  %194 = getelementptr inbounds [10 x i8], ptr %190, i64 %193
  %195 = getelementptr inbounds [10 x i8], ptr %194, i64 0, i64 0
  %196 = load ptr, ptr %11, align 8
  %197 = load i32, ptr %21, align 4
  %198 = load i32, ptr %37, align 4
  %199 = load i32, ptr %23, align 4
  %200 = load i32, ptr %14, align 4
  %201 = sub nsw i32 0, %200
  call void @_Z16contract_as_textB5cxx11RK14ddTableResultsiiii(ptr dead_on_unwind writable sret(%"class.std::__cxx11::basic_string") align 8 %40, ptr noundef nonnull align 4 dereferenceable(80) %196, i32 noundef %197, i32 noundef %198, i32 noundef %199, i32 noundef %201)
  %202 = call noundef ptr @_ZNKSt7__cxx1112basic_stringIcSt11char_traitsIcESaIcEE5c_strEv(ptr noundef nonnull align 8 dereferenceable(32) %40) #4
  %203 = call ptr @strcpy(ptr noundef %195, ptr noundef %202) #4
  call void @_ZNSt7__cxx1112basic_stringIcSt11char_traitsIcESaIcEED1Ev(ptr noundef nonnull align 8 dereferenceable(32) %40) #4
  %204 = load ptr, ptr %20, align 8
  %205 = load i32, ptr %204, align 4
  %206 = add nsw i32 %205, 1
  store i32 %206, ptr %204, align 4
  br label %232

207:                                              ; preds = %183
  %208 = load i32, ptr %37, align 4
  %209 = load i32, ptr %39, align 4
  %210 = icmp slt i32 %208, %209
  %211 = select i1 %210, i32 0, i32 1
  store i32 %211, ptr %41, align 4
  %212 = load ptr, ptr %19, align 8
  %213 = load ptr, ptr %20, align 8
  %214 = load i32, ptr %213, align 4
  %215 = sext i32 %214 to i64
  %216 = getelementptr inbounds [10 x i8], ptr %212, i64 %215
  %217 = getelementptr inbounds [10 x i8], ptr %216, i64 0, i64 0
  %218 = load i32, ptr %41, align 4
  %219 = sext i32 %218 to i64
  %220 = getelementptr inbounds [2 x i32], ptr %32, i64 0, i64 %219
  %221 = load i32, ptr %220, align 4
  %222 = load i32, ptr %41, align 4
  %223 = sext i32 %222 to i64
  %224 = getelementptr inbounds [2 x i32], ptr %31, i64 0, i64 %223
  %225 = load i32, ptr %224, align 4
  %226 = load i32, ptr %14, align 4
  call void @_Z17sacrifice_as_textB5cxx11iii(ptr dead_on_unwind writable sret(%"class.std::__cxx11::basic_string") align 8 %42, i32 noundef %221, i32 noundef %225, i32 noundef %226)
  %227 = call noundef ptr @_ZNKSt7__cxx1112basic_stringIcSt11char_traitsIcESaIcEE5c_strEv(ptr noundef nonnull align 8 dereferenceable(32) %42) #4
  %228 = call ptr @strcpy(ptr noundef %217, ptr noundef %227) #4
  call void @_ZNSt7__cxx1112basic_stringIcSt11char_traitsIcESaIcEED1Ev(ptr noundef nonnull align 8 dereferenceable(32) %42) #4
  %229 = load ptr, ptr %20, align 8
  %230 = load i32, ptr %229, align 4
  %231 = add nsw i32 %230, 1
  store i32 %231, ptr %229, align 4
  br label %232

232:                                              ; preds = %207, %189, %167, %70, %65
  %233 = load i32, ptr %23, align 4
  %234 = add nsw i32 %233, 1
  store i32 %234, ptr %23, align 4
  br label %50, !llvm.loop !17

235:                                              ; preds = %50
  ret void
}