; Function Attrs: mustprogress uwtable
define void @_Z18sacrifices_as_textRK14ddTableResultsiiiiiPA5_K9list_typePA5_KiPA10_cRi(ptr noundef nonnull readonly align 4 captures(none) dereferenceable(80) %0, i32 noundef %1, i32 noundef %2, i32 noundef %3, i32 noundef %4, i32 noundef %5, ptr noundef readonly captures(none) %6, ptr noundef readonly captures(none) %7, ptr noundef %8, ptr noundef nonnull align 4 captures(none) dereferenceable(4) %9) local_unnamed_addr #3 {
  %11 = alloca %"class.std::__cxx11::basic_string", align 8
  %12 = alloca [2 x i32], align 4
  %13 = alloca [2 x i32], align 4
  %14 = alloca %"class.std::__cxx11::basic_string", align 8
  %15 = alloca %"class.std::__cxx11::basic_string", align 8
  %16 = alloca %"class.std::__cxx11::basic_string", align 8
  %17 = sub nsw i32 1, %1
  %18 = sext i32 %17 to i64
  %19 = getelementptr inbounds [5 x %struct.list_type], ptr %6, i64 %18
  %20 = sext i32 %5 to i64
  %21 = mul nsw i32 %3, 5
  %22 = sub nsw i32 0, %3
  %23 = add nsw i32 %4, 34
  %24 = sdiv i32 %23, 5
  %25 = getelementptr inbounds [5 x i32], ptr @DENOM_ORDER, i64 0, i64 %20
  %26 = add i32 %2, 3
  %27 = getelementptr inbounds nuw i8, ptr %13, i64 4
  %smax = tail call i32 @llvm.smax.i32(i32 %2, i32 %26)
  %28 = zext i32 %5 to i64
  br label %29

29:                                               ; preds = %10, %95
  %indvars.iv = phi i64 [ 0, %10 ], [ %indvars.iv.next, %95 ]
  %30 = getelementptr inbounds [5 x i32], ptr %7, i64 %20, i64 %indvars.iv
  %31 = load i32, ptr %30, align 4
  %.not = icmp eq i32 %31, %3
  br i1 %.not, label %32, label %95

32:                                               ; preds = %29
  %.not79 = icmp eq i64 %indvars.iv, %28
  br i1 %.not79, label %41, label %33

33:                                               ; preds = %32
  %34 = getelementptr inbounds nuw %struct.list_type, ptr %19, i64 %indvars.iv, i32 2
  %35 = load i32, ptr %34, align 4
  %36 = add nsw i32 %35, %21
  %37 = load i32, ptr %9, align 4
  %38 = sext i32 %37 to i64
  %39 = getelementptr inbounds [10 x i8], ptr %8, i64 %38
  %40 = trunc nuw nsw i64 %indvars.iv to i32
  call void @_Z16contract_as_textB5cxx11RK14ddTableResultsiiii(ptr dead_on_unwind nonnull writable sret(%"class.std::__cxx11::basic_string") align 8 %11, ptr noundef nonnull align 4 dereferenceable(80) %0, i32 noundef %17, i32 noundef %36, i32 noundef %40, i32 noundef %22)
  br label %.sink.split

41:                                               ; preds = %32
  %42 = load i32, ptr %25, align 4
  %43 = sext i32 %42 to i64
  %44 = getelementptr inbounds [5 x [4 x i32]], ptr %0, i64 0, i64 %43
  br label %45

45:                                               ; preds = %41, %64
  %.07184 = phi i32 [ 0, %41 ], [ %.1, %64 ]
  %.07283 = phi i32 [ 0, %41 ], [ %.173, %64 ]
  %.07482 = phi i32 [ %2, %41 ], [ %65, %64 ]
  %46 = srem i32 %.07482, 4
  %47 = sext i32 %46 to i64
  %48 = getelementptr inbounds i32, ptr %44, i64 %47
  %49 = load i32, ptr %48, align 4
  %50 = srem i32 %.07482, 2
  %51 = icmp eq i32 %50, %1
  br i1 %51, label %52, label %54

52:                                               ; preds = %45
  %53 = icmp eq i32 %24, %49
  %spec.select = select i1 %53, i32 1, i32 %.07184
  br label %64

54:                                               ; preds = %45
  %55 = add nsw i32 %.07184, %24
  %56 = sub i32 %55, %49
  %.not81 = icmp eq i32 %56, %3
  br i1 %.not81, label %57, label %64

57:                                               ; preds = %54
  %58 = sext i32 %.07283 to i64
  %59 = getelementptr inbounds [2 x i32], ptr %12, i64 0, i64 %58
  store i32 %46, ptr %59, align 4
  %60 = mul nuw nsw i32 %.07184, 5
  %61 = add nsw i32 %60, %4
  %62 = getelementptr inbounds [2 x i32], ptr %13, i64 0, i64 %58
  store i32 %61, ptr %62, align 4
  %63 = add nsw i32 %.07283, 1
  br label %64

64:                                               ; preds = %52, %57, %54
  %.173 = phi i32 [ %.07283, %54 ], [ %63, %57 ], [ %.07283, %52 ]
  %.1 = phi i32 [ %.07184, %54 ], [ %.07184, %57 ], [ %spec.select, %52 ]
  %65 = add i32 %.07482, 1
  %exitcond.not = icmp eq i32 %.07482, %smax
  br i1 %exitcond.not, label %66, label %45, !llvm.loop !20

66:                                               ; preds = %64
  %67 = load i32, ptr %13, align 4
  %68 = icmp eq i32 %.173, 1
  br i1 %68, label %69, label %74

69:                                               ; preds = %66
  %70 = load i32, ptr %9, align 4
  %71 = sext i32 %70 to i64
  %72 = getelementptr inbounds [10 x i8], ptr %8, i64 %71
  %73 = load i32, ptr %12, align 4
  call void @_Z17sacrifice_as_textB5cxx11iii(ptr dead_on_unwind nonnull writable sret(%"class.std::__cxx11::basic_string") align 8 %14, i32 noundef %67, i32 noundef %73, i32 noundef %3)
  br label %.sink.split

74:                                               ; preds = %66
  %75 = load i32, ptr %27, align 4
  %76 = icmp eq i32 %67, %75
  br i1 %76, label %77, label %81

77:                                               ; preds = %74
  %78 = load i32, ptr %9, align 4
  %79 = sext i32 %78 to i64
  %80 = getelementptr inbounds [10 x i8], ptr %8, i64 %79
  call void @_Z16contract_as_textB5cxx11RK14ddTableResultsiiii(ptr dead_on_unwind nonnull writable sret(%"class.std::__cxx11::basic_string") align 8 %15, ptr noundef nonnull align 4 dereferenceable(80) %0, i32 noundef %17, i32 noundef %67, i32 noundef %5, i32 noundef %22)
  br label %.sink.split

81:                                               ; preds = %74
  %82 = icmp sge i32 %67, %75
  %83 = load i32, ptr %9, align 4
  %84 = sext i32 %83 to i64
  %85 = getelementptr inbounds [10 x i8], ptr %8, i64 %84
  %86 = zext i1 %82 to i64
  %87 = getelementptr inbounds nuw [2 x i32], ptr %13, i64 0, i64 %86
  %88 = load i32, ptr %87, align 4
  %89 = getelementptr inbounds nuw [2 x i32], ptr %12, i64 0, i64 %86
  %90 = load i32, ptr %89, align 4
  call void @_Z17sacrifice_as_textB5cxx11iii(ptr dead_on_unwind nonnull writable sret(%"class.std::__cxx11::basic_string") align 8 %16, i32 noundef %88, i32 noundef %90, i32 noundef %3)
  br label %.sink.split

.sink.split:                                      ; preds = %33, %69, %77, %81
  %.sink91 = phi ptr [ %16, %81 ], [ %15, %77 ], [ %14, %69 ], [ %11, %33 ]
  %.sink89 = phi ptr [ %85, %81 ], [ %80, %77 ], [ %72, %69 ], [ %39, %33 ]
  %91 = call noundef ptr @_ZNKSt7__cxx1112basic_stringIcSt11char_traitsIcESaIcEE5c_strEv(ptr noundef nonnull align 8 dereferenceable(32) %.sink91) #18
  %92 = call ptr @strcpy(ptr noundef nonnull dereferenceable(1) %.sink89, ptr noundef nonnull dereferenceable(1) %91) #18
  call void @_ZNSt7__cxx1112basic_stringIcSt11char_traitsIcESaIcEED1Ev(ptr noundef nonnull align 8 dereferenceable(32) %.sink91) #18
  %93 = load i32, ptr %9, align 4
  %94 = add nsw i32 %93, 1
  store i32 %94, ptr %9, align 4
  br label %95

95:                                               ; preds = %.sink.split, %29
  %indvars.iv.next = add nuw nsw i64 %indvars.iv, 1
  %exitcond87.not = icmp eq i64 %indvars.iv.next, 5
  br i1 %exitcond87.not, label %96, label %29, !llvm.loop !21

96:                                               ; preds = %95
  ret void
}